; Function Attrs: mustprogress uwtable
define noundef i32 @_ZN6Unpack9DecodeNumEjjPjS0_(ptr noundef nonnull align 8 dereferenceable(59688) %0, i32 noundef %1, i32 noundef %2, ptr nocapture noundef readonly %3, ptr nocapture noundef readonly %4) local_unnamed_addr #0 align 2 {
  %6 = and i32 %1, 65520
  %7 = load i32, ptr %3, align 4
  %.not18 = icmp ugt i32 %7, %6
  br i1 %.not18, label %._crit_edge.thread, label %.lr.ph

._crit_edge.thread:                               ; preds = %5
  %8 = getelementptr inbounds i8, ptr %0, i64 8
  tail call void @_ZN8BitInput8faddbitsEj(ptr noundef nonnull align 8 dereferenceable(24) %8, i32 noundef %2)
  br label %17

.lr.ph:                                           ; preds = %5, %.lr.ph
  %indvars.iv = phi i64 [ %indvars.iv.next, %.lr.ph ], [ 0, %5 ]
  %.01419 = phi i32 [ %9, %.lr.ph ], [ %2, %5 ]
  %9 = add i32 %.01419, 1
  %indvars.iv.next = add nuw nsw i64 %indvars.iv, 1
  %10 = getelementptr inbounds i32, ptr %3, i64 %indvars.iv.next
  %11 = load i32, ptr %10, align 4
  %.not = icmp ugt i32 %11, %6
  br i1 %.not, label %._crit_edge, label %.lr.ph, !llvm.loop !49

._crit_edge:                                      ; preds = %.lr.ph
  %12 = getelementptr inbounds i8, ptr %0, i64 8
  tail call void @_ZN8BitInput8faddbitsEj(ptr noundef nonnull align 8 dereferenceable(24) %12, i32 noundef %9)
  br i1 %.not18, label %17, label %13

13:                                               ; preds = %._crit_edge
  %14 = getelementptr inbounds i32, ptr %3, i64 %indvars.iv.next
  %15 = getelementptr i8, ptr %14, i64 -4
  %16 = load i32, ptr %15, align 4
  br label %17

17:                                               ; preds = %._crit_edge.thread, %._crit_edge, %13
  %.014.lcssa27 = phi i32 [ %9, %13 ], [ %9, %._crit_edge ], [ %2, %._crit_edge.thread ]
  %18 = phi i32 [ %16, %13 ], [ 0, %._crit_edge ], [ 0, %._crit_edge.thread ]
  %19 = sub i32 %6, %18
  %20 = sub i32 16, %.014.lcssa27
  %21 = lshr i32 %19, %20
  %22 = zext i32 %.014.lcssa27 to i64
  %23 = getelementptr inbounds i32, ptr %4, i64 %22
  %24 = load i32, ptr %23, align 4
  %25 = add i32 %21, %24
  ret i32 %25
}